
flagsay-2:     file format elf32-i386


Disassembly of section .init:

080483a8 <_init>:
 80483a8:	53                   	push   ebx
 80483a9:	83 ec 08             	sub    esp,0x8
 80483ac:	e8 ef 00 00 00       	call   80484a0 <__x86.get_pc_thunk.bx>
 80483b1:	81 c3 af 15 00 00    	add    ebx,0x15af
 80483b7:	8b 83 fc ff ff ff    	mov    eax,DWORD PTR [ebx-0x4]
 80483bd:	85 c0                	test   eax,eax
 80483bf:	74 05                	je     80483c6 <_init+0x1e>
 80483c1:	e8 5a 00 00 00       	call   8048420 <__gmon_start__@plt>
 80483c6:	83 c4 08             	add    esp,0x8
 80483c9:	5b                   	pop    ebx
 80483ca:	c3                   	ret    

Disassembly of section .plt:

080483d0 <.plt>:
 80483d0:	ff 35 64 99 04 08    	push   DWORD PTR ds:0x8049964
 80483d6:	ff 25 68 99 04 08    	jmp    DWORD PTR ds:0x8049968
 80483dc:	00 00                	add    BYTE PTR [eax],al
	...

080483e0 <setbuf@plt>:
 80483e0:	ff 25 6c 99 04 08    	jmp    DWORD PTR ds:0x804996c
 80483e6:	68 00 00 00 00       	push   0x0
 80483eb:	e9 e0 ff ff ff       	jmp    80483d0 <.plt>

080483f0 <printf@plt>:
 80483f0:	ff 25 70 99 04 08    	jmp    DWORD PTR ds:0x8049970
 80483f6:	68 08 00 00 00       	push   0x8
 80483fb:	e9 d0 ff ff ff       	jmp    80483d0 <.plt>

08048400 <fgets@plt>:
 8048400:	ff 25 74 99 04 08    	jmp    DWORD PTR ds:0x8049974
 8048406:	68 10 00 00 00       	push   0x10
 804840b:	e9 c0 ff ff ff       	jmp    80483d0 <.plt>

08048410 <malloc@plt>:
 8048410:	ff 25 78 99 04 08    	jmp    DWORD PTR ds:0x8049978
 8048416:	68 18 00 00 00       	push   0x18
 804841b:	e9 b0 ff ff ff       	jmp    80483d0 <.plt>

08048420 <__gmon_start__@plt>:
 8048420:	ff 25 7c 99 04 08    	jmp    DWORD PTR ds:0x804997c
 8048426:	68 20 00 00 00       	push   0x20
 804842b:	e9 a0 ff ff ff       	jmp    80483d0 <.plt>

08048430 <strchr@plt>:
 8048430:	ff 25 80 99 04 08    	jmp    DWORD PTR ds:0x8049980
 8048436:	68 28 00 00 00       	push   0x28
 804843b:	e9 90 ff ff ff       	jmp    80483d0 <.plt>

08048440 <strlen@plt>:
 8048440:	ff 25 84 99 04 08    	jmp    DWORD PTR ds:0x8049984
 8048446:	68 30 00 00 00       	push   0x30
 804844b:	e9 80 ff ff ff       	jmp    80483d0 <.plt>

08048450 <__libc_start_main@plt>:
 8048450:	ff 25 88 99 04 08    	jmp    DWORD PTR ds:0x8049988
 8048456:	68 38 00 00 00       	push   0x38
 804845b:	e9 70 ff ff ff       	jmp    80483d0 <.plt>

08048460 <strncpy@plt>:
 8048460:	ff 25 8c 99 04 08    	jmp    DWORD PTR ds:0x804998c
 8048466:	68 40 00 00 00       	push   0x40
 804846b:	e9 60 ff ff ff       	jmp    80483d0 <.plt>

Disassembly of section .text:

08048470 <_start>:
 8048470:	31 ed                	xor    ebp,ebp
 8048472:	5e                   	pop    esi
 8048473:	89 e1                	mov    ecx,esp
 8048475:	83 e4 f0             	and    esp,0xfffffff0
 8048478:	50                   	push   eax
 8048479:	54                   	push   esp
 804847a:	52                   	push   edx
 804847b:	68 40 87 04 08       	push   0x8048740
 8048480:	68 d0 86 04 08       	push   0x80486d0
 8048485:	51                   	push   ecx
 8048486:	56                   	push   esi
 8048487:	68 da 85 04 08       	push   0x80485da
 804848c:	e8 bf ff ff ff       	call   8048450 <__libc_start_main@plt>
 8048491:	f4                   	hlt    
 8048492:	66 90                	xchg   ax,ax
 8048494:	66 90                	xchg   ax,ax
 8048496:	66 90                	xchg   ax,ax
 8048498:	66 90                	xchg   ax,ax
 804849a:	66 90                	xchg   ax,ax
 804849c:	66 90                	xchg   ax,ax
 804849e:	66 90                	xchg   ax,ax

080484a0 <__x86.get_pc_thunk.bx>:
 80484a0:	8b 1c 24             	mov    ebx,DWORD PTR [esp]
 80484a3:	c3                   	ret    
 80484a4:	66 90                	xchg   ax,ax
 80484a6:	66 90                	xchg   ax,ax
 80484a8:	66 90                	xchg   ax,ax
 80484aa:	66 90                	xchg   ax,ax
 80484ac:	66 90                	xchg   ax,ax
 80484ae:	66 90                	xchg   ax,ax

080484b0 <deregister_tm_clones>:
 80484b0:	b8 5b 9d 04 08       	mov    eax,0x8049d5b
 80484b5:	2d 58 9d 04 08       	sub    eax,0x8049d58
 80484ba:	83 f8 06             	cmp    eax,0x6
 80484bd:	76 1a                	jbe    80484d9 <deregister_tm_clones+0x29>
 80484bf:	b8 00 00 00 00       	mov    eax,0x0
 80484c4:	85 c0                	test   eax,eax
 80484c6:	74 11                	je     80484d9 <deregister_tm_clones+0x29>
 80484c8:	55                   	push   ebp
 80484c9:	89 e5                	mov    ebp,esp
 80484cb:	83 ec 14             	sub    esp,0x14
 80484ce:	68 58 9d 04 08       	push   0x8049d58
 80484d3:	ff d0                	call   eax
 80484d5:	83 c4 10             	add    esp,0x10
 80484d8:	c9                   	leave  
 80484d9:	f3 c3                	repz ret 
 80484db:	90                   	nop
 80484dc:	8d 74 26 00          	lea    esi,[esi+eiz*1+0x0]

080484e0 <register_tm_clones>:
 80484e0:	b8 58 9d 04 08       	mov    eax,0x8049d58
 80484e5:	2d 58 9d 04 08       	sub    eax,0x8049d58
 80484ea:	c1 f8 02             	sar    eax,0x2
 80484ed:	89 c2                	mov    edx,eax
 80484ef:	c1 ea 1f             	shr    edx,0x1f
 80484f2:	01 d0                	add    eax,edx
 80484f4:	d1 f8                	sar    eax,1
 80484f6:	74 1b                	je     8048513 <register_tm_clones+0x33>
 80484f8:	ba 00 00 00 00       	mov    edx,0x0
 80484fd:	85 d2                	test   edx,edx
 80484ff:	74 12                	je     8048513 <register_tm_clones+0x33>
 8048501:	55                   	push   ebp
 8048502:	89 e5                	mov    ebp,esp
 8048504:	83 ec 10             	sub    esp,0x10
 8048507:	50                   	push   eax
 8048508:	68 58 9d 04 08       	push   0x8049d58
 804850d:	ff d2                	call   edx
 804850f:	83 c4 10             	add    esp,0x10
 8048512:	c9                   	leave  
 8048513:	f3 c3                	repz ret 
 8048515:	8d 74 26 00          	lea    esi,[esi+eiz*1+0x0]
 8048519:	8d bc 27 00 00 00 00 	lea    edi,[edi+eiz*1+0x0]

08048520 <__do_global_dtors_aux>:
 8048520:	80 3d 84 9d 04 08 00 	cmp    BYTE PTR ds:0x8049d84,0x0
 8048527:	75 13                	jne    804853c <__do_global_dtors_aux+0x1c>
 8048529:	55                   	push   ebp
 804852a:	89 e5                	mov    ebp,esp
 804852c:	83 ec 08             	sub    esp,0x8
 804852f:	e8 7c ff ff ff       	call   80484b0 <deregister_tm_clones>
 8048534:	c6 05 84 9d 04 08 01 	mov    BYTE PTR ds:0x8049d84,0x1
 804853b:	c9                   	leave  
 804853c:	f3 c3                	repz ret 
 804853e:	66 90                	xchg   ax,ax

08048540 <frame_dummy>:
 8048540:	b8 70 98 04 08       	mov    eax,0x8049870
 8048545:	8b 10                	mov    edx,DWORD PTR [eax]
 8048547:	85 d2                	test   edx,edx
 8048549:	75 05                	jne    8048550 <frame_dummy+0x10>
 804854b:	eb 93                	jmp    80484e0 <register_tm_clones>
 804854d:	8d 76 00             	lea    esi,[esi+0x0]
 8048550:	ba 00 00 00 00       	mov    edx,0x0
 8048555:	85 d2                	test   edx,edx
 8048557:	74 f2                	je     804854b <frame_dummy+0xb>
 8048559:	55                   	push   ebp
 804855a:	89 e5                	mov    ebp,esp
 804855c:	83 ec 14             	sub    esp,0x14
 804855f:	50                   	push   eax
 8048560:	ff d2                	call   edx
 8048562:	83 c4 10             	add    esp,0x10
 8048565:	c9                   	leave  
 8048566:	e9 75 ff ff ff       	jmp    80484e0 <register_tm_clones>

0804856b <placeInFlag>:
 804856b:	55                   	push   ebp
 804856c:	89 e5                	mov    ebp,esp
 804856e:	83 ec 18             	sub    esp,0x18
 8048571:	8b 45 08             	mov    eax,DWORD PTR [ebp+0x8]
 8048574:	05 81 00 00 00       	add    eax,0x81
 8048579:	89 45 f4             	mov    DWORD PTR [ebp-0xc],eax
 804857c:	8b 45 f4             	mov    eax,DWORD PTR [ebp-0xc]
 804857f:	83 c0 23             	add    eax,0x23
 8048582:	89 45 f0             	mov    DWORD PTR [ebp-0x10],eax
 8048585:	83 ec 0c             	sub    esp,0xc
 8048588:	ff 75 0c             	push   DWORD PTR [ebp+0xc]
 804858b:	e8 b0 fe ff ff       	call   8048440 <strlen@plt>
 8048590:	83 c4 10             	add    esp,0x10
 8048593:	89 45 ec             	mov    DWORD PTR [ebp-0x14],eax
 8048596:	c7 45 e8 00 00 00 00 	mov    DWORD PTR [ebp-0x18],0x0
 804859d:	eb 2d                	jmp    80485cc <placeInFlag+0x61>
 804859f:	8b 45 f4             	mov    eax,DWORD PTR [ebp-0xc]
 80485a2:	3b 45 f0             	cmp    eax,DWORD PTR [ebp-0x10]
 80485a5:	75 0e                	jne    80485b5 <placeInFlag+0x4a>
 80485a7:	83 45 f4 15          	add    DWORD PTR [ebp-0xc],0x15
 80485ab:	83 45 f0 38          	add    DWORD PTR [ebp-0x10],0x38
 80485af:	83 45 e8 01          	add    DWORD PTR [ebp-0x18],0x1
 80485b3:	eb 17                	jmp    80485cc <placeInFlag+0x61>
 80485b5:	8b 45 0c             	mov    eax,DWORD PTR [ebp+0xc]
 80485b8:	0f b6 10             	movzx  edx,BYTE PTR [eax]
 80485bb:	8b 45 f4             	mov    eax,DWORD PTR [ebp-0xc]
 80485be:	88 10                	mov    BYTE PTR [eax],dl
 80485c0:	83 45 f4 01          	add    DWORD PTR [ebp-0xc],0x1
 80485c4:	83 45 0c 01          	add    DWORD PTR [ebp+0xc],0x1
 80485c8:	83 6d ec 01          	sub    DWORD PTR [ebp-0x14],0x1
 80485cc:	83 7d ec 00          	cmp    DWORD PTR [ebp-0x14],0x0
 80485d0:	74 06                	je     80485d8 <placeInFlag+0x6d>
 80485d2:	83 7d e8 05          	cmp    DWORD PTR [ebp-0x18],0x5
 80485d6:	76 c7                	jbe    804859f <placeInFlag+0x34>
 80485d8:	c9                   	leave  
 80485d9:	c3                   	ret    

080485da <main>:
 80485da:	8d 4c 24 04          	lea    ecx,[esp+0x4]
 80485de:	83 e4 f0             	and    esp,0xfffffff0
 80485e1:	ff 71 fc             	push   DWORD PTR [ecx-0x4]
 80485e4:	55                   	push   ebp
 80485e5:	89 e5                	mov    ebp,esp
 80485e7:	51                   	push   ecx
 80485e8:	83 ec 14             	sub    esp,0x14
 80485eb:	a1 80 9d 04 08       	mov    eax,ds:0x8049d80
 80485f0:	83 ec 08             	sub    esp,0x8
 80485f3:	6a 00                	push   0x0
 80485f5:	50                   	push   eax
 80485f6:	e8 e5 fd ff ff       	call   80483e0 <setbuf@plt>
 80485fb:	83 c4 10             	add    esp,0x10
 80485fe:	83 ec 0c             	sub    esp,0xc
 8048601:	68 00 9a 04 08       	push   0x8049a00
 8048606:	e8 35 fe ff ff       	call   8048440 <strlen@plt>
 804860b:	83 c4 10             	add    esp,0x10
 804860e:	83 c0 01             	add    eax,0x1
 8048611:	89 45 f4             	mov    DWORD PTR [ebp-0xc],eax
 8048614:	83 ec 0c             	sub    esp,0xc
 8048617:	ff 75 f4             	push   DWORD PTR [ebp-0xc]
 804861a:	e8 f1 fd ff ff       	call   8048410 <malloc@plt>
 804861f:	83 c4 10             	add    esp,0x10
 8048622:	89 45 f0             	mov    DWORD PTR [ebp-0x10],eax
 8048625:	8b 45 f4             	mov    eax,DWORD PTR [ebp-0xc]
 8048628:	8d 50 ff             	lea    edx,[eax-0x1]
 804862b:	8b 45 f0             	mov    eax,DWORD PTR [ebp-0x10]
 804862e:	01 d0                	add    eax,edx
 8048630:	c6 00 00             	mov    BYTE PTR [eax],0x0
 8048633:	83 ec 0c             	sub    esp,0xc
 8048636:	ff 75 f4             	push   DWORD PTR [ebp-0xc]
 8048639:	e8 d2 fd ff ff       	call   8048410 <malloc@plt>
 804863e:	83 c4 10             	add    esp,0x10
 8048641:	89 45 ec             	mov    DWORD PTR [ebp-0x14],eax
 8048644:	83 ec 04             	sub    esp,0x4
 8048647:	ff 75 f4             	push   DWORD PTR [ebp-0xc]
 804864a:	68 00 9a 04 08       	push   0x8049a00
 804864f:	ff 75 ec             	push   DWORD PTR [ebp-0x14]
 8048652:	e8 09 fe ff ff       	call   8048460 <strncpy@plt>
 8048657:	83 c4 10             	add    esp,0x10
 804865a:	8b 45 f4             	mov    eax,DWORD PTR [ebp-0xc]
 804865d:	8d 50 ff             	lea    edx,[eax-0x1]
 8048660:	8b 45 ec             	mov    eax,DWORD PTR [ebp-0x14]
 8048663:	01 d0                	add    eax,edx
 8048665:	c6 00 00             	mov    BYTE PTR [eax],0x0
 8048668:	8b 15 60 9d 04 08    	mov    edx,DWORD PTR ds:0x8049d60
 804866e:	8b 45 f4             	mov    eax,DWORD PTR [ebp-0xc]
 8048671:	83 ec 04             	sub    esp,0x4
 8048674:	52                   	push   edx
 8048675:	50                   	push   eax
 8048676:	ff 75 f0             	push   DWORD PTR [ebp-0x10]
 8048679:	e8 82 fd ff ff       	call   8048400 <fgets@plt>
 804867e:	83 c4 10             	add    esp,0x10
 8048681:	83 ec 08             	sub    esp,0x8
 8048684:	6a 0a                	push   0xa
 8048686:	ff 75 f0             	push   DWORD PTR [ebp-0x10]
 8048689:	e8 a2 fd ff ff       	call   8048430 <strchr@plt>
 804868e:	83 c4 10             	add    esp,0x10
 8048691:	89 45 e8             	mov    DWORD PTR [ebp-0x18],eax
 8048694:	83 7d e8 00          	cmp    DWORD PTR [ebp-0x18],0x0
 8048698:	74 06                	je     80486a0 <main+0xc6>
 804869a:	8b 45 e8             	mov    eax,DWORD PTR [ebp-0x18]
 804869d:	c6 00 00             	mov    BYTE PTR [eax],0x0
 80486a0:	83 ec 08             	sub    esp,0x8
 80486a3:	ff 75 f0             	push   DWORD PTR [ebp-0x10]
 80486a6:	ff 75 ec             	push   DWORD PTR [ebp-0x14]
 80486a9:	e8 bd fe ff ff       	call   804856b <placeInFlag>
 80486ae:	83 c4 10             	add    esp,0x10
 80486b1:	83 ec 0c             	sub    esp,0xc
 80486b4:	ff 75 ec             	push   DWORD PTR [ebp-0x14]
 80486b7:	e8 34 fd ff ff       	call   80483f0 <printf@plt>
 80486bc:	83 c4 10             	add    esp,0x10
 80486bf:	eb 83                	jmp    8048644 <main+0x6a>
 80486c1:	66 90                	xchg   ax,ax
 80486c3:	66 90                	xchg   ax,ax
 80486c5:	66 90                	xchg   ax,ax
 80486c7:	66 90                	xchg   ax,ax
 80486c9:	66 90                	xchg   ax,ax
 80486cb:	66 90                	xchg   ax,ax
 80486cd:	66 90                	xchg   ax,ax
 80486cf:	90                   	nop

080486d0 <__libc_csu_init>:
 80486d0:	55                   	push   ebp
 80486d1:	57                   	push   edi
 80486d2:	31 ff                	xor    edi,edi
 80486d4:	56                   	push   esi
 80486d5:	53                   	push   ebx
 80486d6:	e8 c5 fd ff ff       	call   80484a0 <__x86.get_pc_thunk.bx>
 80486db:	81 c3 85 12 00 00    	add    ebx,0x1285
 80486e1:	83 ec 1c             	sub    esp,0x1c
 80486e4:	8b 6c 24 30          	mov    ebp,DWORD PTR [esp+0x30]
 80486e8:	8d b3 0c ff ff ff    	lea    esi,[ebx-0xf4]
 80486ee:	e8 b5 fc ff ff       	call   80483a8 <_init>
 80486f3:	8d 83 08 ff ff ff    	lea    eax,[ebx-0xf8]
 80486f9:	29 c6                	sub    esi,eax
 80486fb:	c1 fe 02             	sar    esi,0x2
 80486fe:	85 f6                	test   esi,esi
 8048700:	74 27                	je     8048729 <__libc_csu_init+0x59>
 8048702:	8d b6 00 00 00 00    	lea    esi,[esi+0x0]
 8048708:	8b 44 24 38          	mov    eax,DWORD PTR [esp+0x38]
 804870c:	89 2c 24             	mov    DWORD PTR [esp],ebp
 804870f:	89 44 24 08          	mov    DWORD PTR [esp+0x8],eax
 8048713:	8b 44 24 34          	mov    eax,DWORD PTR [esp+0x34]
 8048717:	89 44 24 04          	mov    DWORD PTR [esp+0x4],eax
 804871b:	ff 94 bb 08 ff ff ff 	call   DWORD PTR [ebx+edi*4-0xf8]
 8048722:	83 c7 01             	add    edi,0x1
 8048725:	39 f7                	cmp    edi,esi
 8048727:	75 df                	jne    8048708 <__libc_csu_init+0x38>
 8048729:	83 c4 1c             	add    esp,0x1c
 804872c:	5b                   	pop    ebx
 804872d:	5e                   	pop    esi
 804872e:	5f                   	pop    edi
 804872f:	5d                   	pop    ebp
 8048730:	c3                   	ret    
 8048731:	eb 0d                	jmp    8048740 <__libc_csu_fini>
 8048733:	90                   	nop
 8048734:	90                   	nop
 8048735:	90                   	nop
 8048736:	90                   	nop
 8048737:	90                   	nop
 8048738:	90                   	nop
 8048739:	90                   	nop
 804873a:	90                   	nop
 804873b:	90                   	nop
 804873c:	90                   	nop
 804873d:	90                   	nop
 804873e:	90                   	nop
 804873f:	90                   	nop

08048740 <__libc_csu_fini>:
 8048740:	f3 c3                	repz ret 

Disassembly of section .fini:

08048744 <_fini>:
 8048744:	53                   	push   ebx
 8048745:	83 ec 08             	sub    esp,0x8
 8048748:	e8 53 fd ff ff       	call   80484a0 <__x86.get_pc_thunk.bx>
 804874d:	81 c3 13 12 00 00    	add    ebx,0x1213
 8048753:	83 c4 08             	add    esp,0x8
 8048756:	5b                   	pop    ebx
 8048757:	c3                   	ret    
